target datalayout = "e-m:e-p270:32:32-p271:32:32-p272:64:64-i64:64-i128:128-f80:128-n8:16:32:64-S128"
target triple = "x86_64-pc-linux-gnu"

%struct.Qureg = type { i32, i32, i32, i64, i64, i32, i32, %struct.ComplexArray, %struct.ComplexArray, %struct.ComplexArray, ptr, ptr, ptr, ptr, ptr, ptr }
%struct.ComplexArray = type { ptr, ptr }

@__func__.applyPhaseFuncOverrides = private unnamed_addr constant [24 x i8] c"applyPhaseFuncOverrides\00", align 1

; Function Attrs: nounwind uwtable
define void @applyPhaseFuncOverrides(ptr noundef byval(%struct.Qureg) align 8 %0, ptr noundef %1, i32 noundef %2, i32 noundef %3, ptr noundef %4, ptr noundef %5, i32 noundef %6, ptr noundef %7, ptr noundef %8, i32 noundef %9) #0 {
  %11 = alloca ptr, align 8
  %12 = alloca i32, align 4
  %13 = alloca i32, align 4
  %14 = alloca ptr, align 8
  %15 = alloca ptr, align 8
  %16 = alloca i32, align 4
  %17 = alloca ptr, align 8
  %18 = alloca ptr, align 8
  %19 = alloca i32, align 4
  %20 = alloca i32, align 4
  store ptr %1, ptr %11, align 8, !tbaa !27
  store i32 %2, ptr %12, align 4, !tbaa !4
  store i32 %3, ptr %13, align 4, !tbaa !4
  store ptr %4, ptr %14, align 8, !tbaa !23
  store ptr %5, ptr %15, align 8, !tbaa !23
  store i32 %6, ptr %16, align 4, !tbaa !4
  store ptr %7, ptr %17, align 8, !tbaa !30
  store ptr %8, ptr %18, align 8, !tbaa !23
  store i32 %9, ptr %19, align 4, !tbaa !4
  %21 = load ptr, ptr %11, align 8, !tbaa !27
  %22 = load i32, ptr %12, align 4, !tbaa !4
  call void @validateMultiQubits(ptr noundef byval(%struct.Qureg) align 8 %0, ptr noundef %21, i32 noundef %22, ptr noundef @__func__.applyPhaseFuncOverrides)
  %23 = load i32, ptr %12, align 4, !tbaa !4
  %24 = load i32, ptr %13, align 4, !tbaa !4
  call void @validateBitEncoding(i32 noundef %23, i32 noundef %24, ptr noundef @__func__.applyPhaseFuncOverrides)
  %25 = load i32, ptr %12, align 4, !tbaa !4
  %26 = load i32, ptr %13, align 4, !tbaa !4
  %27 = load ptr, ptr %17, align 8, !tbaa !30
  %28 = load i32, ptr %19, align 4, !tbaa !4
  call void @validatePhaseFuncOverrides(i32 noundef %25, i32 noundef %26, ptr noundef %27, i32 noundef %28, ptr noundef @__func__.applyPhaseFuncOverrides)
  %29 = load i32, ptr %12, align 4, !tbaa !4
  %30 = load i32, ptr %13, align 4, !tbaa !4
  %31 = load ptr, ptr %14, align 8, !tbaa !23
  %32 = load ptr, ptr %15, align 8, !tbaa !23
  %33 = load i32, ptr %16, align 4, !tbaa !4
  %34 = load ptr, ptr %17, align 8, !tbaa !30
  %35 = load i32, ptr %19, align 4, !tbaa !4
  call void @validatePhaseFuncTerms(i32 noundef %29, i32 noundef %30, ptr noundef %31, ptr noundef %32, i32 noundef %33, ptr noundef %34, i32 noundef %35, ptr noundef @__func__.applyPhaseFuncOverrides)
  call void @llvm.lifetime.start.p0(i64 4, ptr %20) #7
  store i32 0, ptr %20, align 4, !tbaa !4
  %36 = load ptr, ptr %11, align 8, !tbaa !27
  %37 = load i32, ptr %12, align 4, !tbaa !4
  %38 = load i32, ptr %13, align 4, !tbaa !4
  %39 = load ptr, ptr %14, align 8, !tbaa !23
  %40 = load ptr, ptr %15, align 8, !tbaa !23
  %41 = load i32, ptr %16, align 4, !tbaa !4
  %42 = load ptr, ptr %17, align 8, !tbaa !30
  %43 = load ptr, ptr %18, align 8, !tbaa !23
  %44 = load i32, ptr %19, align 4, !tbaa !4
  %45 = load i32, ptr %20, align 4, !tbaa !4
  call void @statevec_applyPhaseFuncOverrides(ptr noundef byval(%struct.Qureg) align 8 %0, ptr noundef %36, i32 noundef %37, i32 noundef %38, ptr noundef %39, ptr noundef %40, i32 noundef %41, ptr noundef %42, ptr noundef %43, i32 noundef %44, i32 noundef %45)
  %46 = getelementptr inbounds nuw %struct.Qureg, ptr %0, i32 0, i32 0
  %47 = load i32, ptr %46, align 8, !tbaa !13
  %48 = icmp ne i32 %47, 0
  br i1 %48, label %49, label %69

49:                                               ; preds = %10
  store i32 1, ptr %20, align 4, !tbaa !4
  %50 = load ptr, ptr %11, align 8, !tbaa !27
  %51 = load i32, ptr %12, align 4, !tbaa !4
  %52 = getelementptr inbounds nuw %struct.Qureg, ptr %0, i32 0, i32 1
  %53 = load i32, ptr %52, align 4, !tbaa !18
  call void @shiftIndices(ptr noundef %50, i32 noundef %51, i32 noundef %53)
  %54 = load ptr, ptr %11, align 8, !tbaa !27
  %55 = load i32, ptr %12, align 4, !tbaa !4
  %56 = load i32, ptr %13, align 4, !tbaa !4
  %57 = load ptr, ptr %14, align 8, !tbaa !23
  %58 = load ptr, ptr %15, align 8, !tbaa !23
  %59 = load i32, ptr %16, align 4, !tbaa !4
  %60 = load ptr, ptr %17, align 8, !tbaa !30
  %61 = load ptr, ptr %18, align 8, !tbaa !23
  %62 = load i32, ptr %19, align 4, !tbaa !4
  %63 = load i32, ptr %20, align 4, !tbaa !4
  call void @statevec_applyPhaseFuncOverrides(ptr noundef byval(%struct.Qureg) align 8 %0, ptr noundef %54, i32 noundef %55, i32 noundef %56, ptr noundef %57, ptr noundef %58, i32 noundef %59, ptr noundef %60, ptr noundef %61, i32 noundef %62, i32 noundef %63)
  %64 = load ptr, ptr %11, align 8, !tbaa !27
  %65 = load i32, ptr %12, align 4, !tbaa !4
  %66 = getelementptr inbounds nuw %struct.Qureg, ptr %0, i32 0, i32 1
  %67 = load i32, ptr %66, align 4, !tbaa !18
  %68 = sub nsw i32 0, %67
  call void @shiftIndices(ptr noundef %64, i32 noundef %65, i32 noundef %68)
  br label %69

69:                                               ; preds = %49, %10
  %70 = load ptr, ptr %11, align 8, !tbaa !27
  %71 = load i32, ptr %12, align 4, !tbaa !4
  %72 = load i32, ptr %13, align 4, !tbaa !4
  %73 = load ptr, ptr %14, align 8, !tbaa !23
  %74 = load ptr, ptr %15, align 8, !tbaa !23
  %75 = load i32, ptr %16, align 4, !tbaa !4
  %76 = load ptr, ptr %17, align 8, !tbaa !30
  %77 = load ptr, ptr %18, align 8, !tbaa !23
  %78 = load i32, ptr %19, align 4, !tbaa !4
  call void @qasm_recordPhaseFunc(ptr noundef byval(%struct.Qureg) align 8 %0, ptr noundef %70, i32 noundef %71, i32 noundef %72, ptr noundef %73, ptr noundef %74, i32 noundef %75, ptr noundef %76, ptr noundef %77, i32 noundef %78)
  call void @llvm.lifetime.end.p0(i64 4, ptr %20) #7
  ret void
}