; Function Attrs: nounwind uwtable
define void @applyPhaseFuncOverrides(ptr noundef readonly byval(%struct.Qureg) align 8 captures(none) %0, ptr noundef %1, i32 noundef %2, i32 noundef %3, ptr noundef %4, ptr noundef %5, i32 noundef %6, ptr noundef %7, ptr noundef %8, i32 noundef %9) local_unnamed_addr #0 {
  tail call void @validateMultiQubits(ptr noundef nonnull byval(%struct.Qureg) align 8 %0, ptr noundef %1, i32 noundef %2, ptr noundef nonnull @__func__.applyPhaseFuncOverrides) #17
  tail call void @validateBitEncoding(i32 noundef %2, i32 noundef %3, ptr noundef nonnull @__func__.applyPhaseFuncOverrides) #17
  tail call void @validatePhaseFuncOverrides(i32 noundef %2, i32 noundef %3, ptr noundef %7, i32 noundef %9, ptr noundef nonnull @__func__.applyPhaseFuncOverrides) #17
  tail call void @validatePhaseFuncTerms(i32 noundef %2, i32 noundef %3, ptr noundef %4, ptr noundef %5, i32 noundef %6, ptr noundef %7, i32 noundef %9, ptr noundef nonnull @__func__.applyPhaseFuncOverrides) #17
  tail call void @statevec_applyPhaseFuncOverrides(ptr noundef nonnull byval(%struct.Qureg) align 8 %0, ptr noundef %1, i32 noundef %2, i32 noundef %3, ptr noundef %4, ptr noundef %5, i32 noundef %6, ptr noundef %7, ptr noundef %8, i32 noundef %9, i32 noundef 0) #17
  %11 = load i32, ptr %0, align 8, !tbaa !12
  %.not = icmp eq i32 %11, 0
  br i1 %.not, label %16, label %12

12:                                               ; preds = %10
  %13 = getelementptr inbounds nuw i8, ptr %0, i64 4
  %14 = load i32, ptr %13, align 4, !tbaa !17
  tail call void @shiftIndices(ptr noundef %1, i32 noundef %2, i32 noundef %14) #17
  tail call void @statevec_applyPhaseFuncOverrides(ptr noundef nonnull byval(%struct.Qureg) align 8 %0, ptr noundef %1, i32 noundef %2, i32 noundef %3, ptr noundef %4, ptr noundef %5, i32 noundef %6, ptr noundef %7, ptr noundef %8, i32 noundef %9, i32 noundef 1) #17
  %15 = sub nsw i32 0, %14
  tail call void @shiftIndices(ptr noundef %1, i32 noundef %2, i32 noundef %15) #17
  br label %16

16:                                               ; preds = %12, %10
  tail call void @qasm_recordPhaseFunc(ptr noundef nonnull byval(%struct.Qureg) align 8 %0, ptr noundef %1, i32 noundef %2, i32 noundef %3, ptr noundef %4, ptr noundef %5, i32 noundef %6, ptr noundef %7, ptr noundef %8, i32 noundef %9) #17
  ret void
}